; ModuleID = 'source-C-CXX/59/843.c'
source_filename = "source-C-CXX/59/843.c"
target datalayout = "e-m:e-p270:32:32-p271:32:32-p272:64:64-i64:64-f80:128-n8:16:32:64-S128"
target triple = "x86_64-pc-linux-gnu"

@.str = private unnamed_addr constant [3 x i8] c"%d\00", align 1
@.str.1 = private unnamed_addr constant [6 x i8] c"empty\00", align 1
@.str.2 = private unnamed_addr constant [7 x i8] c"%d %d\0A\00", align 1

; Function Attrs: nofree nounwind sspstrong uwtable
define dso_local i32 @main() local_unnamed_addr #0 {
  %1 = alloca i32, align 4
  %2 = bitcast i32* %1 to i8*
  call void @llvm.lifetime.start.p0i8(i64 4, i8* nonnull %2) #3
  %3 = call i32 (i8*, ...) @__isoc99_scanf(i8* getelementptr inbounds ([3 x i8], [3 x i8]* @.str, i64 0, i64 0), i32* nonnull %1)
  %4 = load i32, i32* %1, align 4, !tbaa !5
  %5 = add i32 %4, -1
  %6 = icmp ult i32 %5, 4
  br i1 %6, label %7, label %10

7:                                                ; preds = %0
  %8 = call i32 (i8*, ...) @printf(i8* nonnull dereferenceable(1) getelementptr inbounds ([6 x i8], [6 x i8]* @.str.1, i64 0, i64 0))
  %9 = load i32, i32* %1, align 4, !tbaa !5
  br label %10

10:                                               ; preds = %0, %7
  %11 = phi i32 [ %4, %0 ], [ %9, %7 ]
  %12 = icmp sgt i32 %11, 4
  br i1 %12, label %13, label %73

13:                                               ; preds = %10, %67
  %14 = phi i32 [ %72, %67 ], [ 0, %10 ]
  %15 = phi i32 [ %68, %67 ], [ %11, %10 ]
  %16 = phi i32 [ %69, %67 ], [ 3, %10 ]
  %17 = add i32 %14, 3
  %18 = and i32 %17, 1
  %19 = icmp eq i32 %14, -2
  br i1 %19, label %38, label %20

20:                                               ; preds = %13
  %21 = and i32 %17, -2
  br label %22

22:                                               ; preds = %22, %20
  %23 = phi i32 [ 0, %20 ], [ %34, %22 ]
  %24 = phi i32 [ %16, %20 ], [ %35, %22 ]
  %25 = phi i32 [ %21, %20 ], [ %36, %22 ]
  %26 = srem i32 %16, %24
  %27 = icmp eq i32 %26, 0
  %28 = zext i1 %27 to i32
  %29 = add nuw nsw i32 %23, %28
  %30 = add nsw i32 %24, -1
  %31 = srem i32 %16, %30
  %32 = icmp eq i32 %31, 0
  %33 = zext i1 %32 to i32
  %34 = add nuw nsw i32 %29, %33
  %35 = add nsw i32 %24, -2
  %36 = add i32 %25, -2
  %37 = icmp eq i32 %36, 0
  br i1 %37, label %38, label %22, !llvm.loop !9

38:                                               ; preds = %22, %13
  %39 = phi i32 [ undef, %13 ], [ %34, %22 ]
  %40 = phi i32 [ 0, %13 ], [ %34, %22 ]
  %41 = phi i32 [ %16, %13 ], [ %35, %22 ]
  %42 = icmp eq i32 %18, 0
  br i1 %42, label %48, label %43

43:                                               ; preds = %38
  %44 = srem i32 %16, %41
  %45 = icmp eq i32 %44, 0
  %46 = zext i1 %45 to i32
  %47 = add nuw nsw i32 %40, %46
  br label %48

48:                                               ; preds = %38, %43
  %49 = phi i32 [ %39, %38 ], [ %47, %43 ]
  %50 = icmp eq i32 %49, 2
  br i1 %50, label %51, label %67

51:                                               ; preds = %48
  %52 = add nuw nsw i32 %16, 2
  br label %53

53:                                               ; preds = %51, %53
  %54 = phi i32 [ 0, %51 ], [ %59, %53 ]
  %55 = phi i32 [ %52, %51 ], [ %60, %53 ]
  %56 = srem i32 %52, %55
  %57 = icmp eq i32 %56, 0
  %58 = zext i1 %57 to i32
  %59 = add nuw nsw i32 %54, %58
  %60 = add nsw i32 %55, -1
  %61 = icmp sgt i32 %55, 1
  br i1 %61, label %53, label %62, !llvm.loop !11

62:                                               ; preds = %53
  %63 = icmp eq i32 %59, 2
  br i1 %63, label %64, label %67

64:                                               ; preds = %62
  %65 = call i32 (i8*, ...) @printf(i8* nonnull dereferenceable(1) getelementptr inbounds ([7 x i8], [7 x i8]* @.str.2, i64 0, i64 0), i32 %16, i32 %52)
  %66 = load i32, i32* %1, align 4, !tbaa !5
  br label %67

67:                                               ; preds = %48, %64, %62
  %68 = phi i32 [ %15, %48 ], [ %66, %64 ], [ %15, %62 ]
  %69 = add nuw nsw i32 %16, 1
  %70 = add nsw i32 %68, -2
  %71 = icmp slt i32 %16, %70
  %72 = add i32 %14, 1
  br i1 %71, label %13, label %73, !llvm.loop !12

73:                                               ; preds = %67, %10
  call void @llvm.lifetime.end.p0i8(i64 4, i8* nonnull %2) #3
  ret i32 0
}

; Function Attrs: argmemonly mustprogress nofree nosync nounwind willreturn
declare void @llvm.lifetime.start.p0i8(i64 immarg, i8* nocapture) #1

; Function Attrs: nofree nounwind
declare noundef i32 @__isoc99_scanf(i8* nocapture noundef readonly, ...) local_unnamed_addr #2

; Function Attrs: nofree nounwind
declare noundef i32 @printf(i8* nocapture noundef readonly, ...) local_unnamed_addr #2

; Function Attrs: argmemonly mustprogress nofree nosync nounwind willreturn
declare void @llvm.lifetime.end.p0i8(i64 immarg, i8* nocapture) #1


!llvm.module.flags = !{!0, !1, !2, !3}
!llvm.ident = !{!4}

!0 = !{i32 1, !"wchar_size", i32 4}
!1 = !{i32 7, !"PIC Level", i32 2}
!2 = !{i32 7, !"PIE Level", i32 2}
!3 = !{i32 7, !"uwtable", i32 1}
!4 = !{!"clang version 13.0.0"}
!5 = !{!6, !6, i64 0}
!6 = !{!"int", !7, i64 0}
!7 = !{!"omnipotent char", !8, i64 0}
!8 = !{!"Simple C/C++ TBAA"}
!9 = distinct !{!9, !10}
!10 = !{!"llvm.loop.mustprogress"}
!11 = distinct !{!11, !10}
!12 = distinct !{!12, !10}
